target datalayout = "e-m:e-p270:32:32-p271:32:32-p272:64:64-i64:64-i128:128-f80:128-n8:16:32:64-S128"
target triple = "x86_64-pc-linux-gnu"

%union.ListCell = type { ptr }
%struct.nameData = type { [64 x i8] }
%struct.HeapTupleData = type { i32, %struct.ItemPointerData, i32, ptr }
%struct.ItemPointerData = type { %struct.BlockIdData, i16 }
%struct.BlockIdData = type { i16, i16 }
%struct.FormData_pg_proc = type { i32, %struct.nameData, i32, i32, i32, float, float, i32, i32, i8, i8, i8, i8, i8, i8, i8, i16, i16, i32, %struct.oidvector }
%struct.oidvector = type { i32, i32, i32, i32, i32, i32, [0 x i32] }
%struct._FuncCandidateList = type { ptr, i32, i32, i32, i32, i32, i32, ptr, [0 x i32] }
%struct.HeapTupleHeaderData = type { %union.anon, %struct.ItemPointerData, i16, i16, i8, [0 x i8] }
%union.anon = type { %struct.HeapTupleFields }
%struct.HeapTupleFields = type { i32, i32, %union.anon.0 }
%union.anon.0 = type { i32 }

@.str.1 = private unnamed_addr constant [12 x i8] c"namespace.c\00", align 1
@activeSearchPath = internal global ptr null, align 8
@.str.32 = private unnamed_addr constant [36 x i8] c"cache lookup failed for function %u\00", align 1
@__func__.FunctionIsVisibleExt = private unnamed_addr constant [21 x i8] c"FunctionIsVisibleExt\00", align 1

; Function Attrs: inlinehint nounwind uwtable
define internal ptr @GETSTRUCT(ptr noundef %0) #7 {
  %2 = alloca ptr, align 8
  store ptr %0, ptr %2, align 8
  %3 = load ptr, ptr %2, align 8
  %4 = getelementptr inbounds nuw %struct.HeapTupleData, ptr %3, i32 0, i32 3
  %5 = load ptr, ptr %4, align 8
  %6 = load ptr, ptr %2, align 8
  %7 = getelementptr inbounds nuw %struct.HeapTupleData, ptr %6, i32 0, i32 3
  %8 = load ptr, ptr %7, align 8
  %9 = getelementptr inbounds nuw %struct.HeapTupleHeaderData, ptr %8, i32 0, i32 4
  %10 = load i8, ptr %9, align 2
  %11 = zext i8 %10 to i32
  %12 = sext i32 %11 to i64
  %13 = getelementptr inbounds i8, ptr %5, i64 %12
  ret ptr %13
}

; Function Attrs: inlinehint nounwind uwtable
define internal i64 @ObjectIdGetDatum(i32 noundef %0) #7 {
  %2 = alloca i32, align 4
  store i32 %0, ptr %2, align 4
  %3 = load i32, ptr %2, align 4
  %4 = zext i32 %3 to i64
  ret i64 %4
}

; Function Attrs: nounwind uwtable
define internal zeroext i1 @FunctionIsVisibleExt(i32 noundef %0, ptr noundef %1) #0 {
  %3 = alloca i1, align 1
  %4 = alloca i32, align 4
  %5 = alloca ptr, align 8
  %6 = alloca ptr, align 8
  %7 = alloca ptr, align 8
  %8 = alloca i32, align 4
  %9 = alloca i8, align 1
  %10 = alloca i32, align 4
  %11 = alloca ptr, align 8
  %12 = alloca i32, align 4
  %13 = alloca ptr, align 8
  %14 = alloca %union.ListCell, align 8
  store i32 %0, ptr %4, align 4
  store ptr %1, ptr %5, align 8
  call void @llvm.lifetime.start.p0(i64 8, ptr %6) #14
  call void @llvm.lifetime.start.p0(i64 8, ptr %7) #14
  call void @llvm.lifetime.start.p0(i64 4, ptr %8) #14
  call void @llvm.lifetime.start.p0(i64 1, ptr %9) #14
  %15 = load i32, ptr %4, align 4
  %16 = call i64 @ObjectIdGetDatum(i32 noundef %15)
  %17 = call ptr @SearchSysCache1(i32 noundef 47, i64 noundef %16)
  store ptr %17, ptr %6, align 8
  %18 = load ptr, ptr %6, align 8
  %19 = icmp ne ptr %18, null
  br i1 %19, label %37, label %20

20:                                               ; preds = %2
  %21 = load ptr, ptr %5, align 8
  %22 = icmp ne ptr %21, null
  br i1 %22, label %23, label %25

23:                                               ; preds = %20
  %24 = load ptr, ptr %5, align 8
  store i8 1, ptr %24, align 1
  store i1 false, ptr %3, align 1
  store i32 1, ptr %10, align 4
  br label %99

25:                                               ; preds = %20
  br label %26

26:                                               ; preds = %25
  br i1 true, label %27, label %29

27:                                               ; preds = %26
  %28 = call zeroext i1 @errstart_cold(i32 noundef 21, ptr noundef null) #16
  br i1 %28, label %31, label %34

29:                                               ; preds = %26
  %30 = call zeroext i1 @errstart(i32 noundef 21, ptr noundef null)
  br i1 %30, label %31, label %34

31:                                               ; preds = %29, %27
  %32 = load i32, ptr %4, align 4
  %33 = call i32 (ptr, ...) @errmsg_internal(ptr noundef @.str.32, i32 noundef %32)
  call void @errfinish(ptr noundef @.str.1, i32 noundef 1723, ptr noundef @__func__.FunctionIsVisibleExt)
  br label %34

34:                                               ; preds = %31, %29, %27
  unreachable

35:                                               ; No predecessors!
  br label %36

36:                                               ; preds = %35
  br label %37

37:                                               ; preds = %36, %2
  %38 = load ptr, ptr %6, align 8
  %39 = call ptr @GETSTRUCT(ptr noundef %38)
  store ptr %39, ptr %7, align 8
  call void @recomputeNamespacePath()
  %40 = load ptr, ptr %7, align 8
  %41 = getelementptr inbounds nuw %struct.FormData_pg_proc, ptr %40, i32 0, i32 2
  %42 = load i32, ptr %41, align 4
  store i32 %42, ptr %8, align 4
  %43 = load i32, ptr %8, align 4
  %44 = icmp ne i32 %43, 11
  br i1 %44, label %45, label %50

45:                                               ; preds = %37
  %46 = load ptr, ptr @activeSearchPath, align 8
  %47 = load i32, ptr %8, align 4
  %48 = call zeroext i1 @list_member_oid(ptr noundef %46, i32 noundef %47)
  br i1 %48, label %50, label %49

49:                                               ; preds = %45
  store i8 0, ptr %9, align 1
  br label %95

50:                                               ; preds = %45, %37
  call void @llvm.lifetime.start.p0(i64 8, ptr %11) #14
  %51 = load ptr, ptr %7, align 8
  %52 = getelementptr inbounds nuw %struct.FormData_pg_proc, ptr %51, i32 0, i32 1
  %53 = getelementptr inbounds nuw %struct.nameData, ptr %52, i32 0, i32 0
  %54 = getelementptr inbounds [64 x i8], ptr %53, i64 0, i64 0
  store ptr %54, ptr %11, align 8
  call void @llvm.lifetime.start.p0(i64 4, ptr %12) #14
  %55 = load ptr, ptr %7, align 8
  %56 = getelementptr inbounds nuw %struct.FormData_pg_proc, ptr %55, i32 0, i32 16
  %57 = load i16, ptr %56, align 4
  %58 = sext i16 %57 to i32
  store i32 %58, ptr %12, align 4
  call void @llvm.lifetime.start.p0(i64 8, ptr %13) #14
  store i8 0, ptr %9, align 1
  %59 = load ptr, ptr %11, align 8
  %60 = call ptr @makeString(ptr noundef %59)
  store ptr %60, ptr %14, align 8
  %61 = getelementptr inbounds nuw %union.ListCell, ptr %14, i32 0, i32 0
  %62 = load ptr, ptr %61, align 8
  %63 = call ptr @list_make1_impl(i32 noundef 1, ptr %62)
  %64 = load i32, ptr %12, align 4
  %65 = call ptr @FuncnameGetCandidates(ptr noundef %63, i32 noundef %64, ptr noundef null, i1 noundef zeroext false, i1 noundef zeroext false, i1 noundef zeroext false, i1 noundef zeroext false)
  store ptr %65, ptr %13, align 8
  br label %66

66:                                               ; preds = %90, %50
  %67 = load ptr, ptr %13, align 8
  %68 = icmp ne ptr %67, null
  br i1 %68, label %69, label %94

69:                                               ; preds = %66
  %70 = load ptr, ptr %13, align 8
  %71 = getelementptr inbounds nuw %struct._FuncCandidateList, ptr %70, i32 0, i32 8
  %72 = getelementptr inbounds [0 x i32], ptr %71, i64 0, i64 0
  %73 = load ptr, ptr %7, align 8
  %74 = getelementptr inbounds nuw %struct.FormData_pg_proc, ptr %73, i32 0, i32 19
  %75 = getelementptr inbounds nuw %struct.oidvector, ptr %74, i32 0, i32 6
  %76 = getelementptr inbounds [0 x i32], ptr %75, i64 0, i64 0
  %77 = load i32, ptr %12, align 4
  %78 = sext i32 %77 to i64
  %79 = mul i64 %78, 4
  %80 = call i32 @memcmp(ptr noundef %72, ptr noundef %76, i64 noundef %79) #15
  %81 = icmp eq i32 %80, 0
  br i1 %81, label %82, label %89

82:                                               ; preds = %69
  %83 = load ptr, ptr %13, align 8
  %84 = getelementptr inbounds nuw %struct._FuncCandidateList, ptr %83, i32 0, i32 2
  %85 = load i32, ptr %84, align 4
  %86 = load i32, ptr %4, align 4
  %87 = icmp eq i32 %85, %86
  %88 = zext i1 %87 to i8
  store i8 %88, ptr %9, align 1
  br label %94

89:                                               ; preds = %69
  br label %90

90:                                               ; preds = %89
  %91 = load ptr, ptr %13, align 8
  %92 = getelementptr inbounds nuw %struct._FuncCandidateList, ptr %91, i32 0, i32 0
  %93 = load ptr, ptr %92, align 8
  store ptr %93, ptr %13, align 8
  br label %66, !llvm.loop !21

94:                                               ; preds = %82, %66
  call void @llvm.lifetime.end.p0(i64 8, ptr %13) #14
  call void @llvm.lifetime.end.p0(i64 4, ptr %12) #14
  call void @llvm.lifetime.end.p0(i64 8, ptr %11) #14
  br label %95

95:                                               ; preds = %94, %49
  %96 = load ptr, ptr %6, align 8
  call void @ReleaseSysCache(ptr noundef %96)
  %97 = load i8, ptr %9, align 1, !range !4, !noundef !5
  %98 = trunc i8 %97 to i1
  store i1 %98, ptr %3, align 1
  store i32 1, ptr %10, align 4
  br label %99

99:                                               ; preds = %95, %23
  call void @llvm.lifetime.end.p0(i64 1, ptr %9) #14
  call void @llvm.lifetime.end.p0(i64 4, ptr %8) #14
  call void @llvm.lifetime.end.p0(i64 8, ptr %7) #14
  call void @llvm.lifetime.end.p0(i64 8, ptr %6) #14
  %100 = load i1, ptr %3, align 1
  ret i1 %100
}