; Function Attrs: nounwind uwtable
define internal fastcc zeroext i1 @FunctionIsVisibleExt(i32 noundef %0, ptr noundef writeonly captures(address_is_null) %1) unnamed_addr #0 {
  %3 = zext i32 %0 to i64
  %4 = tail call ptr @SearchSysCache1(i32 noundef 47, i64 noundef %3) #19
  %.not = icmp eq ptr %4, null
  br i1 %.not, label %5, label %10

5:                                                ; preds = %2
  %.not27 = icmp eq ptr %1, null
  br i1 %.not27, label %7, label %6

6:                                                ; preds = %5
  store i8 1, ptr %1, align 1
  br label %41

7:                                                ; preds = %5
  %8 = tail call zeroext i1 @errstart_cold(i32 noundef 21, ptr noundef null) #21
  tail call void @llvm.assume(i1 %8)
  %9 = tail call i32 (ptr, ...) @errmsg_internal(ptr noundef nonnull @.str.32, i32 noundef %0) #19
  tail call void @errfinish(ptr noundef nonnull @.str.1, i32 noundef 1723, ptr noundef nonnull @__func__.FunctionIsVisibleExt) #19
  unreachable

10:                                               ; preds = %2
  %11 = getelementptr i8, ptr %4, i64 16
  %.val = load ptr, ptr %11, align 8
  %12 = getelementptr inbounds nuw i8, ptr %.val, i64 22
  %13 = load i8, ptr %12, align 2
  %14 = zext i8 %13 to i64
  %15 = getelementptr inbounds nuw i8, ptr %.val, i64 %14
  tail call fastcc void @recomputeNamespacePath()
  %16 = getelementptr inbounds nuw i8, ptr %15, i64 68
  %17 = load i32, ptr %16, align 4
  %.not28 = icmp eq i32 %17, 11
  br i1 %.not28, label %21, label %18

18:                                               ; preds = %10
  %19 = load ptr, ptr @activeSearchPath, align 8
  %20 = tail call zeroext i1 @list_member_oid(ptr noundef %19, i32 noundef %17) #19
  br i1 %20, label %21, label %.loopexit

21:                                               ; preds = %18, %10
  %22 = getelementptr inbounds nuw i8, ptr %15, i64 4
  %23 = getelementptr inbounds nuw i8, ptr %15, i64 104
  %24 = load i16, ptr %23, align 4
  %25 = sext i16 %24 to i32
  %26 = tail call ptr @makeString(ptr noundef nonnull %22) #19
  %27 = tail call ptr @list_make1_impl(i32 noundef 1, ptr %26) #19
  %28 = tail call ptr @FuncnameGetCandidates(ptr noundef %27, i32 noundef %25, ptr noundef null, i1 noundef zeroext false, i1 noundef zeroext false, i1 noundef zeroext false, i1 noundef zeroext false)
  %.not2931 = icmp eq ptr %28, null
  br i1 %.not2931, label %.loopexit, label %.lr.ph

.lr.ph:                                           ; preds = %21
  %29 = getelementptr inbounds nuw i8, ptr %15, i64 136
  %30 = sext i16 %24 to i64
  %31 = shl nsw i64 %30, 2
  br label %32

32:                                               ; preds = %.lr.ph, %39
  %.02232 = phi ptr [ %28, %.lr.ph ], [ %40, %39 ]
  %33 = getelementptr inbounds nuw i8, ptr %.02232, i64 40
  %bcmp = tail call i32 @bcmp(ptr nonnull %33, ptr nonnull %29, i64 %31)
  %34 = icmp eq i32 %bcmp, 0
  br i1 %34, label %35, label %39

35:                                               ; preds = %32
  %36 = getelementptr inbounds nuw i8, ptr %.02232, i64 12
  %37 = load i32, ptr %36, align 4
  %38 = icmp eq i32 %37, %0
  br label %.loopexit

39:                                               ; preds = %32
  %40 = load ptr, ptr %.02232, align 8
  %.not29 = icmp eq ptr %40, null
  br i1 %.not29, label %.loopexit, label %32, !llvm.loop !16

.loopexit:                                        ; preds = %39, %21, %35, %18
  %.023 = phi i1 [ false, %18 ], [ %38, %35 ], [ false, %21 ], [ false, %39 ]
  tail call void @ReleaseSysCache(ptr noundef nonnull %4) #19
  br label %41

41:                                               ; preds = %.loopexit, %6
  %.0 = phi i1 [ %.023, %.loopexit ], [ false, %6 ]
  ret i1 %.0
}